	.section .mdebug.abi32
	.previous
	.gnu_attribute 4, 0

 # -G value = 8, Arch = pic32mx, ISA = 33
 # GNU C (Microchip Technology) version 4.5.1 MPLAB C Compiler for PIC32 MCUs v2.02-20111116 (pic32mx)
 #	compiled by GNU C version 4.4.2, GMP version 4.3.2, MPFR version 2.4.2, MPC version 0.8.1
 # GGC heuristics: --param ggc-min-expand=100 --param ggc-min-heapsize=131072
 # options passed:  -fpreprocessed main.i
 # -mconfig-data-dir=c:/users/keithv.keithsofficepc/documents/digitent/bootloaders/chipkit-bootloader-projects/mplab c32 suite/bin/../lib/gcc/pic32mx/4.5.1/../../../../pic32mx/lib/./proc/32MX120F032D
 # -fno-builtin-fabs -fno-builtin-fabsf -fverbose-asm
 # -mprocessor=32MX120F032D -mips16 -mno-float -mips32r2 -mabi=32
 # -auxbase-strip main.o -g -Os
 # options enabled:  -falign-loops -fargument-alias -fauto-inc-dec
 # -fbranch-count-reg -fcaller-saves -fcommon -fcprop-registers
 # -fcrossjumping -fcse-follow-jumps -fdefer-pop -fdelayed-branch
 # -fdelete-null-pointer-checks -fdwarf2-cfi-asm -fearly-inlining
 # -feliminate-unused-debug-types -fexpensive-optimizations
 # -fforward-propagate -ffunction-cse -fgcse -fgcse-lm
 # -fguess-branch-probability -fident -fif-conversion -fif-conversion2
 # -findirect-inlining -finline-functions-called-once -fipa-cp
 # -fipa-pure-const -fipa-reference -fipa-sra -fira-share-save-slots
 # -fira-share-spill-slots -fivopts -fkeep-static-consts
 # -fleading-underscore -fmath-errno -fmerge-constants
 # -fmerge-debug-strings -fomit-frame-pointer -foptimize-register-move
 # -foptimize-sibling-calls -fpcc-struct-return -fpeephole -fpeephole2
 # -fregmove -freorder-blocks -freorder-functions -frerun-cse-after-loop
 # -fsched-critical-path-heuristic -fsched-dep-count-heuristic
 # -fsched-group-heuristic -fsched-interblock -fsched-last-insn-heuristic
 # -fsched-rank-heuristic -fsched-spec -fsched-spec-insn-heuristic
 # -fsched-stalled-insns-dep -fschedule-insns2 -fshow-column -fsigned-zeros
 # -fsplit-ivs-in-unroller -fsplit-wide-types -fstrict-aliasing
 # -fstrict-overflow -fstrict-volatile-bitfields -fthread-jumps
 # -ftoplevel-reorder -ftrapping-math -ftree-builtin-call-dce -ftree-ccp
 # -ftree-ch -ftree-copy-prop -ftree-copyrename -ftree-cselim -ftree-dce
 # -ftree-dominator-opts -ftree-dse -ftree-forwprop -ftree-fre
 # -ftree-loop-im -ftree-loop-ivcanon -ftree-loop-optimize
 # -ftree-parallelize-loops= -ftree-phiprop -ftree-pta -ftree-reassoc
 # -ftree-scev-cprop -ftree-sink -ftree-slp-vectorize -ftree-sra
 # -ftree-switch-conversion -ftree-ter -ftree-vect-loop-version -ftree-vrp
 # -funit-at-a-time -fvar-tracking -fvar-tracking-assignments -fverbose-asm
 # -fzero-initialized-in-bss -mbranch-likely -mcheck-zero-division
 # -mdivide-traps -mel -membedded-data -mexplicit-relocs -mextern-sdata
 # -mfused-madd -mgpopt -minterlink-mips16 -mips16 -mjals -mlocal-sdata
 # -mlong32 -mmemcpy -mno-float -mshared -msoft-float -msplit-addresses

	.section	.text,code
.Ltext0:
 # Compiler executable checksum: 5f79c4fe9aea52d9a14c610405612b0e

	.cfi_sections	.debug_frame
	.align	2
.LFB12 = .
	.file 1 "main.c"
	.loc 1 268 0
	.cfi_startproc
	.set	mips16
	.set	nomicromips
	.ent	avrbl_print
	.type	avrbl_print, @function
avrbl_print:
	.frame	$sp,0,$31		# vars= 0, regs= 0/0, args= 0, gp= 0
	.mask	0x00000000,0
	.fmask	0x00000000,0
# Begin mchp_output_function_prologue
# End mchp_output_function_prologue
.LVL0 = .
	.file 2 "serial.h"
	.loc 2 42 0
	li	$2,0	 # i,
	b	.L2	 #
.LVL1 = .
.L3:
.LBB38 = .
.LBB39 = .
	.loc 2 43 0
	lw	$3,.L4	 # tmp254,
	lw	$3,0($3)	 # tmp255,
	li	$6,255	 # tmp256,
	addiu	$6,1	 # tmp256,
	and	$3,$6	 # tmp255, tmp256
	beqz	$3,.L3	 #, tmp255,
	.loc 1 267 0
	addu	$3,$4,$2	 # tmp257, buffer, i
	.loc 2 47 0
	lbu	$6,0($3)	 # U1TXREG.68,
	lw	$3,.L5	 # tmp258,
	.loc 2 42 0
	addiu	$2,1	 # i,
.LVL2 = .
	.loc 2 47 0
	sw	$6,0($3)	 # U1TXREG.68, U1TXREG
.LVL3 = .
.L2:
	.loc 2 42 0
	slt	$2,$5	 # i, length
	btnez	.L3	 #,
.LBE39 = .
.LBE38 = .
	.loc 1 270 0
	j	$31
	.align	2	 #
.L4:
	.word	U1STA
.L5:
	.word	U1TXREG
# Begin mchp_output_function_epilogue
# End mchp_output_function_epilogue
	.end	avrbl_print
	.cfi_endproc
.LFE12:
	.size	avrbl_print, .-avrbl_print
	.align	2
.LFB15 = .
	.loc 1 574 0
	.cfi_startproc
	.set	mips16
	.set	nomicromips
	.ent	getHeaderStructure
	.type	getHeaderStructure, @function
getHeaderStructure:
	.frame	$sp,0,$31		# vars= 0, regs= 0/0, args= 0, gp= 0
	.mask	0x00000000,0
	.fmask	0x00000000,0
# Begin mchp_output_function_prologue
# End mchp_output_function_prologue
.LVL4 = .
	.loc 1 580 0
	lw	$5,.L12	 # tmp230,
	.loc 1 576 0
	addiu	$3,$4,252	 # addr, imageBaseAddr,
.LVL5 = .
	.loc 1 580 0
	addiu	$2,$3,4	 # tmp229, addr,
	sltu	$5,$2	 # tmp230, tmp229
	.loc 1 597 0
	li	$2,0	 # pHeaderInfo,
	.loc 1 580 0
	btnez	.L13	 #,
	.loc 1 582 0
	lw	$3,0($3)	 # addr,* addr
.LVL6 = .
	.loc 1 585 0
	addiu	$6,$3,1	 # tmp232, addr,
	beqz	$6,.L13	 #, tmp232,
	li	$6,3	 # tmp234,
	and	$6,$3	 # tmp233, addr
	bnez	$6,.L13	 #, tmp233,
	addiu	$6,$3,7	 # tmp235, addr,
	addiu	$6,57	 # tmp235,
	sltu	$5,$6	 # tmp230, tmp235
	btnez	.L13	 #,
.LVL7 = .
	.loc 1 589 0
	lhu	$2,30($3)	 # tmp239,
	lhu	$5,28($3)	 # tmp238,
	sll	$2,$2,8	 # tmp242, tmp239,
	sll	$2,$2,8	 # tmp242, tmp242,
	or	$2,$5	 # tmp242, tmp238
	xor	$2,$4	 # tmp243, imageBaseAddr
	.loc 1 597 0
	sltu	$2,1	 # tmp243
	move	$2,$24	 # tmp246,
	neg	$2,$2	 # tmp247, tmp246
	and	$2,$3	 # pHeaderInfo, addr
.LVL8 = .
.L13:
	.loc 1 598 0
	j	$31
	.align	2	 #
.L12:
	.word	-1660911616
# Begin mchp_output_function_epilogue
# End mchp_output_function_epilogue
	.end	getHeaderStructure
	.cfi_endproc
.LFE15:
	.size	getHeaderStructure, .-getHeaderStructure
	.align	2
.LFB14 = .
	.loc 1 502 0
	.cfi_startproc
	.set	mips16
	.set	nomicromips
	.ent	ExecuteApp
	.type	ExecuteApp, @function
ExecuteApp:
	.frame	$sp,24,$31		# vars= 0, regs= 2/0, args= 16, gp= 0
	.mask	0x80010000,-4
	.fmask	0x00000000,0
# Begin mchp_output_function_prologue
# End mchp_output_function_prologue
	save	24,$16,$31
.LCFI0:
	.cfi_def_cfa_offset 24
.L15:
.LBB40 = .
.LBB41 = .
	.file 3 "BoardConfig.h"
	.loc 3 1516 0
	lw	$2,.L23	 # tmp240,
	lw	$3,0($2)	 # tmp241,
	li	$2,255	 # tmp242,
	addiu	$2,1	 # tmp242,
	and	$3,$2	 # tmp241, tmp242
.LBE41 = .
.LBE40 = .
	.loc 1 512 0
	move	$16,$28	 # tmp253,
	.cfi_offset 16, -8
	.cfi_offset 31, -4
.LBB43 = .
.LBB42 = .
	.loc 3 1516 0
	beqz	$3,.L15	 #, tmp241,
	.loc 3 1519 0
	li	$4,0	 # tmp244,
	lw	$3,.L24	 # tmp243,
	sw	$4,0($3)	 # tmp244, U1MODE
.LBE42 = .
.LBE43 = .
.LBB44 = .
.LBB45 = .
	.loc 3 1419 0
	lw	$3,.L25	 # tmp245,
	li	$4,128	 # tmp246,
	sw	$4,0($3)	 # tmp246, LATACLR
	.loc 3 1420 0
	sw	$2,0($3)	 # tmp242, LATACLR
	.loc 3 1423 0
	lw	$3,.L26	 # tmp249,
	sw	$4,0($3)	 # tmp246, TRISASET
.LBE45 = .
.LBE44 = .
	.loc 1 512 0
	lw	$4,%gprel(addrBase)($16)	 #, addrBase
.LBB47 = .
.LBB46 = .
	.loc 3 1424 0
	sw	$2,0($3)	 # tmp242, TRISASET
.LBE46 = .
.LBE47 = .
	.loc 1 512 0
	jal	getHeaderStructure	 #
.LVL9 = .
	beqz	$2,.L16	 #, pHeaderInfo,
	.loc 1 516 0
	lbu	$3,%gprel(fLoaded)($16)	 #, fLoaded
	zeb	$3	 # fLoaded.26
	beqz	$3,.L17	 #, fLoaded.26,
	lhu	$3,22($2)	 # tmp256,
	lhu	$4,20($2)	 # tmp255,
	sll	$3,$3,8	 # tmp260, tmp256,
	sll	$3,$3,8	 # tmp260, tmp260,
	or	$3,$4	 # tmp260, tmp255
	lw	$4,.L27	 # tmp261,
	and	$3,$4	 # tmp260, tmp261
	beqz	$3,.L17	 #, tmp260,
	.loc 1 518 0
	lw	$4,.L28	 #,
	jal	getHeaderStructure	 #
.LVL10 = .
	beqz	$2,.L18	 #, pHeaderInfo,
.L17:
	.loc 1 527 0
	lhu	$3,26($2)	 # tmp269,
	lhu	$4,24($2)	 # tmp268,
	sll	$3,$3,8	 # tmp272, tmp269,
	sll	$3,$3,8	 # tmp272, tmp272,
	or	$3,$4	 # tmp272, tmp268
	sw	$3,%gprel(UserApp)($16)	 # tmp272, UserApp
.L18:
	.loc 1 532 0
	lhu	$3,2($2)	 # tmp274,
	lhu	$4,0($2)	 # tmp273,* pHeaderInfo
	sll	$3,$3,8	 # tmp277, tmp274,
	sll	$3,$3,8	 # tmp277, tmp277,
	or	$3,$4	 # tmp277, tmp273
	sltu	$3,60	 # tmp277,
	btnez	.L16	 #,
	.loc 1 534 0
	lhu	$3,54($2)	 # tmp280,
	lhu	$4,52($2)	 # tmp279,
	sll	$3,$3,8	 # D.8700, tmp280,
	sll	$3,$3,8	 # D.8700, D.8700,
	or	$3,$4	 # D.8700, tmp279
	move	$4,$16	 # _skip_ram_space_end_adder.28, tmp253
	addiu	$4,%gprel(_skip_ram_space_end_adder)	 # _skip_ram_space_end_adder.28,
	addiu	$5,$4,-4	 # tmp284, _skip_ram_space_end_adder.28,
	.loc 1 532 0
	sltu	$5,$3	 # tmp284, D.8700
	btnez	.L16	 #,
.LBB48 = .
	.loc 1 536 0
	lhu	$5,56($2)	 # tmp286,
	lhu	$2,58($2)	 # tmp287,
.LVL11 = .
	sll	$2,$2,8	 # cb, tmp287,
	sll	$2,$2,8	 # cb, cb,
	or	$2,$5	 # cb, tmp286
	sltu	$2,9	 # cb,
	btnez	.L19	 #,
	li	$2,8	 # cb,
.L19:
.LVL12 = .
	.loc 1 539 0
	subu	$4,$4,$3	 # tmp292, _skip_ram_space_end_adder.28, D.8700
	sltu	$4,$2	 # tmp292, cb
	bteqz	.L20	 #,
	move	$2,$4	 # cb, tmp292
.LVL13 = .
.L20:
.LBB49 = .
.LBB50 = .
	.file 4 "util.h"
	.loc 4 17 0
	move	$4,$16	 # stemp, tmp253
.LBE50 = .
.LBE49 = .
	.loc 1 542 0
	sw	$2,%gprel(ramHeader)($16)	 # cb, ramHeader.cbBlRamHeader
.LVL14 = .
.LBB52 = .
.LBB51 = .
	.loc 4 17 0
	addiu	$4,%gprel(ramHeader)	 # stemp,
.LVL15 = .
	b	.L21	 #
.LVL16 = .
.L22:
	.loc 4 20 0
	lbu	$5,0($4)	 #,* stemp
	addiu	$2,-1	 # cb,
	addiu	$4,1	 # stemp,
.LVL17 = .
	sb	$5,0($3)	 # tmp294,* dtemp
	addiu	$3,1	 # dtemp,
.LVL18 = .
.L21:
	.loc 4 19 0
	bnez	$2,.L22	 #, cb,
.LVL19 = .
.L16:
.LBE51 = .
.LBE52 = .
.LBE48 = .
	.loc 1 552 0
	lw	$2,%gprel(UserApp)($16)	 # UserApp, UserApp
	jalr	$2	 # UserApp
	.align	2	 #
.L23:
	.word	U1STA
.L24:
	.word	U1MODE
.L25:
	.word	LATACLR
.L26:
	.word	TRISASET
.L27:
	.word	33554432
.L28:
	.word	-1660944384
# Begin mchp_output_function_epilogue
# End mchp_output_function_epilogue
	.end	ExecuteApp
	.cfi_endproc
.LFE14:
	.size	ExecuteApp, .-ExecuteApp
	.align	2
.LFB17 = .
	.loc 1 694 0
	.cfi_startproc
	.set	nomips16
	.set	nomicromips
	.ent	flashOperation
	.type	flashOperation, @function
flashOperation:
	.frame	$sp,0,$31		# vars= 0, regs= 0/0, args= 0, gp= 0
	.mask	0x00000000,0
	.fmask	0x00000000,0
	.set	noreorder
	.set	nomacro
# Begin mchp_output_function_prologue
# End mchp_output_function_prologue
.LVL20 = .
	.loc 1 704 0
	ext	$5,$5,0,29	 # NVMADDR.60, addr,
.LVL21 = .
	lui	$2,%hi(NVMADDR)	 # tmp232,
	sw	$5,%lo(NVMADDR)($2)	 # NVMADDR.60, NVMADDR
.LVL22 = .
	.loc 1 705 0
	lui	$2,%hi(NVMDATA)	 # tmp233,
	sw	$6,%lo(NVMDATA)($2)	 # data, NVMDATA
	.loc 1 706 0
	ext	$6,$6,0,29	 # NVMSRCADDR.61, data,
.LVL23 = .
	lui	$2,%hi(NVMSRCADDR)	 # tmp234,
.LVL24 = .
	sw	$6,%lo(NVMSRCADDR)($2)	 # NVMSRCADDR.61, NVMSRCADDR
.LVL25 = .
	.loc 1 722 0
	ori	$4,$4,0x4000	 # NVMCON.62, nvmop,
.LVL26 = .
	lui	$2,%hi(NVMCON)	 # tmp235,
	sw	$4,%lo(NVMCON)($2)	 # NVMCON.62, NVMCON
.LVL27 = .
	.loc 1 730 0
	mfc0	$3, $9, 0
.LVL28 = .
	move	$5,$2	 # tmp252, tmp235
.LVL29 = .
.L30:
	.loc 1 731 0
	mfc0	$2, $9, 0
	subu	$2,$2,$3	 # tmp236, D.8862, t0
	sltu	$2,$2,120	 # tmp237, tmp236,
	bne	$2,$0,.L30	 #, tmp237,,
	lui	$2,%hi(NVMKEY)	 # tmp238,

	.loc 1 734 0
	li	$3,-1432813568			# 0xaa990000	 # tmp240,
.LVL30 = .
	addiu	$3,$3,26197	 # tmp239, tmp240,
	sw	$3,%lo(NVMKEY)($2)	 # tmp239, NVMKEY
	.loc 1 735 0
	li	$3,1432748032			# 0x55660000	 # tmp243,
	ori	$3,$3,0x99aa	 # tmp242, tmp243,
	sw	$3,%lo(NVMKEY)($2)	 # tmp242, NVMKEY
	.loc 1 736 0
	li	$4,32768			# 0x8000	 # tmp245,
.LVL31 = .
	lui	$3,%hi(NVMCONSET)	 # tmp244,
	sw	$4,%lo(NVMCONSET)($3)	 # tmp245, NVMCONSET
.L31:
	.loc 1 739 0
	lw	$2,%lo(NVMCON)($5)	 # NVMCON.63, NVMCON
	andi	$2,$2,0x8000	 # tmp247, NVMCON.63,
	bne	$2,$0,.L31
	nop
	 #, tmp247,,
	.loc 1 742 0
	mfc0	$2, $9, 0
.LVL32 = .
.L32:
	.loc 1 743 0
	mfc0	$3, $9, 0
	subu	$3,$3,$2	 # tmp248, D.8866, t0
	sltu	$3,$3,10	 # tmp249, tmp248,
	bne	$3,$0,.L32	 #, tmp249,,
	li	$3,16384			# 0x4000	 # tmp251,

	.loc 1 746 0
	lui	$2,%hi(NVMCONCLR)	 # tmp250,
.LVL33 = .
	sw	$3,%lo(NVMCONCLR)($2)	 # tmp251, NVMCONCLR
	.loc 1 761 0
	j	$31
	nop

	.set	macro
	.set	reorder
# Begin mchp_output_function_epilogue
# End mchp_output_function_epilogue
	.end	flashOperation
	.cfi_endproc
.LFE17:
	.size	flashOperation, .-flashOperation
	.align	2
.LFB18 = .
	.loc 1 783 0
	.cfi_startproc
	.set	mips16
	.set	nomicromips
	.ent	flashErasePage
	.type	flashErasePage, @function
flashErasePage:
	.frame	$sp,40,$31		# vars= 8, regs= 3/0, args= 16, gp= 0
	.mask	0x80030000,-4
	.fmask	0x00000000,0
# Begin mchp_output_function_prologue
# End mchp_output_function_prologue
.LVL34 = .
	.loc 1 786 0
	li	$2,1	 # x,
	.loc 1 783 0
	save	40,$16,$17,$31
.LCFI1:
	.cfi_def_cfa_offset 40
	.loc 1 786 0
	neg	$2,$2	 # x, x
	.loc 1 783 0
	move	$16,$4	 # addrPage, addrPage
	.cfi_offset 16, -12
	.cfi_offset 17, -8
	.cfi_offset 31, -4
.LVL35 = .
	.loc 1 796 0
	li	$17,5	 # ivtmp.99,
	b	.L37	 #
.LVL36 = .
.L38:
	.loc 1 798 0
	lw	$5,0($3)	 # tmp256,* addrPage
	addiu	$3,4	 # addrPage,
	and	$2,$5	 # x, tmp256
.LVL37 = .
.L40:
	.loc 1 796 0
	cmp	$3,$4	 # addrPage, D.9191
	btnez	.L38	 #,
	.loc 1 802 0
	addiu	$3,$2,1	 # tmp258, x,
	beqz	$3,.L36	 #, tmp258,
	.loc 1 808 0
	li	$4,16388	 #,
	move	$5,$16	 #, addrPage
	li	$6,0	 #,
	addiu	$17,-1	 # ivtmp.99,
	.set	noreorder
	.set	nomacro
	jal	flashOperation	 #
	sw	$2,16($sp)	 #,
	.set	macro
	.set	reorder

.LVL38 = .
	.loc 1 793 0
	lw	$2,16($sp)	 #,
	beqz	$17,.L36	 #, ivtmp.99,
.LVL39 = .
.L37:
	.loc 1 782 0
	addiu	$4,$16,1024	 # D.9191, addrPage,
	move	$3,$16	 # addrPage, addrPage
	b	.L40	 #
.LVL40 = .
.L36:
	.loc 1 813 0
	restore	40,$16,$17,$31
.LVL41 = .
	j	$31	 #
# Begin mchp_output_function_epilogue
# End mchp_output_function_epilogue
	.end	flashErasePage
	.cfi_endproc
.LFE18:
	.size	flashErasePage, .-flashErasePage
	.align	2
.LFB20 = .
	.loc 1 874 0
	.cfi_startproc
	.set	mips16
	.set	nomicromips
	.ent	justInTimeFlashErase
	.type	justInTimeFlashErase, @function
justInTimeFlashErase:
	.frame	$sp,40,$31		# vars= 8, regs= 3/0, args= 16, gp= 0
	.mask	0x80030000,-4
	.fmask	0x00000000,0
# Begin mchp_output_function_prologue
# End mchp_output_function_prologue
.LVL42 = .
	save	40,$16,$17,$31
.LCFI2:
	.cfi_def_cfa_offset 40
	.loc 1 875 0
	li	$2,1024	 # tmp231,
	.loc 1 877 0
	lw	$17,.L45	 # tmp238,
	.cfi_offset 16, -12
	.cfi_offset 17, -8
	.cfi_offset 31, -4
	.loc 1 875 0
	neg	$2,$2	 # tmp231, tmp231
	move	$16,$4	 # addrCurPage, addrLow
	and	$16,$2	 # addrCurPage, tmp231
.LVL43 = .
	.loc 1 876 0
	addiu	$5,-1	 # tmp233,
.LVL44 = .
	.loc 1 877 0
	addu	$17,$16,$17	 # tmp237, addrCurPage, tmp238
	.loc 1 876 0
	and	$5,$2	 # tmp233, tmp231
.LVL45 = .
	.loc 1 877 0
	srl	$17,$17,8	 # iPage, tmp237,
	.loc 1 876 0
	addiu	$5,1024	 # addrLastPage,
.LVL46 = .
	.loc 1 877 0
	srl	$17,$17,2	 # iPage, iPage,
.LVL47 = .
	.loc 1 879 0
	b	.L42	 #
.LVL48 = .
.L44:
	.loc 1 873 0
	lw	$2,.L46	 # tmp240,
	addu	$2,$17,$2	 # D.9206, iPage, tmp240
	.loc 1 882 0
	lbu	$3,0($2)	 # tmp241, pageMap
	bnez	$3,.L43	 #, tmp241,
	.loc 1 884 0
	move	$4,$16	 #, addrCurPage
	sw	$2,20($sp)	 #,
	.set	noreorder
	.set	nomacro
	jal	flashErasePage	 #
	sw	$5,16($sp)	 #,
	.set	macro
	.set	reorder

	.loc 1 885 0
	lw	$2,20($sp)	 #,
	li	$3,1	 # tmp242,
	sb	$3,0($2)	 # tmp242, pageMap
	lw	$5,16($sp)	 #,
.L43:
	.loc 1 888 0
	addiu	$17,1	 # iPage,
.LVL49 = .
	.loc 1 889 0
	addiu	$16,1024	 # addrCurPage,
.LVL50 = .
.L42:
	.loc 1 879 0
	sltu	$16,$5	 # addrCurPage, addrLastPage
	btnez	.L44	 #,
	.loc 1 891 0
	restore	40,$16,$17,$31
.LVL51 = .
	j	$31	 #
	.align	2	 #
.L45:
	.word	1660944384
.L46:
	.word	pageMap
# Begin mchp_output_function_epilogue
# End mchp_output_function_epilogue
	.end	justInTimeFlashErase
	.cfi_endproc
.LFE20:
	.size	justInTimeFlashErase, .-justInTimeFlashErase
	.align	2
.LFB19 = .
	.loc 1 836 0
	.cfi_startproc
	.set	mips16
	.set	nomicromips
	.ent	flashWriteUint32
	.type	flashWriteUint32, @function
flashWriteUint32:
	.frame	$sp,40,$31		# vars= 8, regs= 3/0, args= 16, gp= 0
	.mask	0x80030000,-4
	.fmask	0x00000000,0
# Begin mchp_output_function_prologue
# End mchp_output_function_prologue
.LVL52 = .
	save	40,$16,$17,$31
.LCFI3:
	.cfi_def_cfa_offset 40
	.loc 1 836 0
	move	$3,$6	 # cu32Data, cu32Data
	move	$16,$4	 # addrUint32, addrUint32
	.cfi_offset 16, -12
	.cfi_offset 17, -8
	.cfi_offset 31, -4
	.loc 1 839 0
	move	$17,$5	 # ivtmp.136, rgu32Data
	li	$2,0	 # i,
	b	.L48	 #
.LVL53 = .
.L50:
	.loc 1 843 0
	lw	$6,0($17)	 # D.8871,* ivtmp.136
	addiu	$4,$6,1	 # tmp226, D.8871,
	beqz	$4,.L49	 #, tmp226,
	.loc 1 846 0
	li	$4,16385	 #,
	move	$5,$16	 #, addrUint32
	sw	$2,16($sp)	 #,
	.set	noreorder
	.set	nomacro
	jal	flashOperation	 #
	sw	$3,20($sp)	 #,
	.set	macro
	.set	reorder

.LVL54 = .
	lw	$3,20($sp)	 #,
	lw	$2,16($sp)	 #,
.L49:
	.loc 1 849 0
	addiu	$16,4	 # addrUint32,
.LVL55 = .
	.loc 1 839 0
	addiu	$2,1	 # i,
.LVL56 = .
	addiu	$17,4	 # ivtmp.136,
.LVL57 = .
.L48:
	sltu	$2,$3	 # i, cu32Data
	btnez	.L50	 #,
	.loc 1 851 0
	restore	40,$16,$17,$31
.LVL58 = .
	j	$31	 #
# Begin mchp_output_function_epilogue
# End mchp_output_function_epilogue
	.end	flashWriteUint32
	.cfi_endproc
.LFE19:
	.size	flashWriteUint32, .-flashWriteUint32
	.align	2
.LFB16 = .
	.loc 1 619 0
	.cfi_startproc
	.set	mips16
	.set	nomicromips
	.ent	finshFlashProcessingAfterLoad
	.type	finshFlashProcessingAfterLoad, @function
finshFlashProcessingAfterLoad:
	.frame	$sp,32,$31		# vars= 0, regs= 3/0, args= 16, gp= 0
	.mask	0x80030000,-4
	.fmask	0x00000000,0
# Begin mchp_output_function_prologue
# End mchp_output_function_prologue
	save	32,$16,$17,$31
.LCFI4:
	.cfi_def_cfa_offset 32
	.loc 1 628 0
	move	$17,$28	 # tmp235,
	.cfi_offset 16, -12
	.cfi_offset 17, -8
	.cfi_offset 31, -4
.LVL59 = .
	lw	$4,%gprel(addrBase)($17)	 #, addrBase
	jal	getHeaderStructure	 #
	move	$16,$2	 # pHeaderInfo,
.LVL60 = .
	beqz	$2,.L55	 #, pHeaderInfo,
	.loc 1 631 0
	move	$5,$17	 #, tmp235
	addiu	$4,$2,4	 #, pHeaderInfo,
	addiu	$5,%gprel(bootloaderVer)	 #,
	.set	noreorder
	.set	nomacro
	jal	flashWriteUint32	 #
	li	$6,1	 #,
	.set	macro
	.set	reorder

.LVL61 = .
	.loc 1 632 0
	addiu	$4,$16,7	 #, pHeaderInfo,
	move	$5,$17	 #, tmp235
	addiu	$4,9	 #,
	addiu	$5,%gprel(prodAndVend)	 #,
	.set	noreorder
	.set	nomacro
	jal	flashWriteUint32	 #
	li	$6,1	 #,
	.set	macro
	.set	reorder

	.loc 1 633 0
	addiu	$4,$16,7	 #, pHeaderInfo,
	move	$5,$17	 #, tmp235
	addiu	$4,5	 #,
	addiu	$5,%gprel(bootloaderCapabilities)	 #,
	.set	noreorder
	.set	nomacro
	jal	flashWriteUint32	 #
	li	$6,1	 #,
	.set	macro
	.set	reorder

	.loc 1 634 0
	addiu	$4,$16,7	 #, pHeaderInfo,
	move	$5,$17	 #, tmp235
	addiu	$4,53	 #,
	addiu	$5,%gprel(cbSkipRam)	 #,
	.set	noreorder
	.set	nomacro
	jal	flashWriteUint32	 #
	li	$6,1	 #,
	.set	macro
	.set	reorder

	.loc 1 637 0
	lhu	$2,22($16)	 # tmp241,
	lhu	$3,20($16)	 # tmp240,
	sll	$2,$2,8	 # tmp244, tmp241,
	sll	$2,$2,8	 # tmp244, tmp244,
	or	$2,$3	 # tmp244, tmp240
	lw	$3,.L57	 # tmp246,
	and	$3,$2	 # tmp245, tmp244
	bnez	$3,.L51	 #, tmp245,
	.loc 1 642 0
	lw	$3,.L58	 # tmp248,
	and	$3,$2	 # tmp247, tmp244
	beqz	$3,.L54	 #, tmp247,
	.loc 1 644 0
	lhu	$4,30($16)	 # tmp250,
	lhu	$2,28($16)	 # tmp249,
	.loc 1 645 0
	lhu	$5,34($16)	 # tmp255,
	.loc 1 644 0
	sll	$4,$4,8	 # addrLow, tmp250,
	sll	$4,$4,8	 # addrLow, addrLow,
	or	$4,$2	 # addrLow, tmp249
.LVL62 = .
	.loc 1 645 0
	lhu	$2,32($16)	 # tmp254,
	sll	$5,$5,8	 # tmp258, tmp255,
	sll	$5,$5,8	 # tmp258, tmp258,
	or	$5,$2	 # tmp258, tmp254
	addu	$5,$5,$4	 # addrHigh, tmp258, addrLow
.LVL63 = .
	b	.L52	 #
.LVL64 = .
.L54:
	.loc 1 649 0
	lw	$3,.L59	 # tmp260,
	lw	$4,.L60	 # addrLow,
	and	$2,$3	 # tmp259, tmp260
	beqz	$2,.L56	 #, tmp259,
	.loc 1 651 0
	lw	$5,.L61	 # addrHigh,
	b	.L52	 #
.L55:
	.loc 1 625 0
	lw	$5,.L62	 # addrHigh,
	.loc 1 624 0
	lw	$4,.L60	 # addrLow,
	b	.L52	 #
.L56:
	.loc 1 625 0
	lw	$5,.L62	 # addrHigh,
.LVL65 = .
.L52:
	.loc 1 660 0
	jal	justInTimeFlashErase	 #
.LVL66 = .
.L51:
	.loc 1 661 0
	restore	32,$16,$17,$31
.LVL67 = .
	j	$31	 #
	.align	2	 #
.L57:
	.word	131072
.L58:
	.word	262144
.L59:
	.word	524288
.L60:
	.word	-1660944384
.L61:
	.word	-1660911616
.L62:
	.word	-1660915712
# Begin mchp_output_function_epilogue
# End mchp_output_function_epilogue
	.end	finshFlashProcessingAfterLoad
	.cfi_endproc
.LFE16:
	.size	finshFlashProcessingAfterLoad, .-finshFlashProcessingAfterLoad
	.section	.rodata,code
	.align	2
.LC17:
	.ascii	"STK500_2\000"
	.section	.text,code
	.align	2
.LFB22 = .
	.loc 1 274 0
	.cfi_startproc
	.set	mips16
	.set	nomicromips
	.ent	avrbl_message.clone.0.clone.1
	.type	avrbl_message.clone.0.clone.1, @function
avrbl_message.clone.0.clone.1:
	.frame	$sp,104,$31		# vars= 72, regs= 3/0, args= 16, gp= 0
	.mask	0x80030000,-4
	.fmask	0x00000000,0
# Begin mchp_output_function_prologue
# End mchp_output_function_prologue
	save	104,$16,$17,$31
.LCFI5:
	.cfi_def_cfa_offset 104
	.loc 1 292 0
	move	$16,$28	 # tmp336,
	.cfi_offset 16, -12
	.cfi_offset 17, -8
	.cfi_offset 31, -4
.LVL68 = .
	lw	$2,%gprel(replyi)($16)	 # replyi.33, replyi
	lw	$3,.L101	 # tmp337,
	lbu	$4,2($3)	 # D.9065, request
	lw	$5,.L102	 # tmp338,
	addu	$6,$5,$2	 # tmp339, tmp338, replyi.33
	sb	$4,0($6)	 # D.9065, reply
	addiu	$6,$2,1	 # replyi.34, replyi.33,
	.loc 1 293 0
	addu	$6,$5,$6	 # tmp341, tmp338, replyi.34
	li	$7,0	 # tmp342,
	sb	$7,0($6)	 # tmp342, reply
	.loc 1 296 0
	cmpi	$4,6	 # D.9065,
	.loc 1 293 0
	addiu	$6,$2,2	 # replyi_lsm.143, replyi.33,
	sw	$6,%gprel(replyi)($16)	 # replyi_lsm.143, replyi
	.loc 1 296 0
	bteqz	.L68	 #,
	sltu	$4,7	 # D.9065,
	bteqz	.L73	 #,
	cmpi	$4,2	 # D.9065,
	bteqz	.L66	 #,
	cmpi	$4,3	 # D.9065,
	bteqz	.L67	 #,
	li	$3,1	 #,
	xor	$4,$3	 # tmp347,
	beqz	$4,.L65	 #, tmp347,
	b	.L64	 #
.L73:
	cmpi	$4,19	 # D.9065,
	bteqz	.L70	 #,
	sltu	$4,20	 # D.9065,
	bteqz	.L74	 #,
	cmpi	$4,17	 # D.9065,
	bteqz	.L69	 #,
	b	.L64	 #
.L74:
	cmpi	$4,20	 # D.9065,
	bteqz	.L71	 #,
	li	$7,29	 #,
	xor	$4,$7	 # tmp352,
	beqz	$4,.L72	 #, tmp352,
	b	.L64	 #
.L65:
	.loc 1 304 0
	li	$3,1	 # tmp354,
	.loc 1 306 0
	addu	$6,$5,$6	 # tmp357, tmp338, replyi_lsm.143
	addiu	$2,3	 # replyi.34,
	.loc 1 304 0
	sb	$3,%gprel(active)($16)	 # tmp354, active
	.loc 1 306 0
	li	$3,8	 # tmp358,
	sb	$3,0($6)	 # tmp358, reply
	.loc 1 302 0
	sb	$4,%gprel(fLoadProgramFromFlash)($16)	 # tmp347, fLoadProgramFromFlash
	.loc 1 305 0
	sb	$4,%gprel(erased)($16)	 # tmp347, erased
	.loc 1 306 0
	sw	$2,%gprel(replyi)($16)	 # replyi.34, replyi
	.loc 1 307 0
	addu	$5,$2,$5	 # dest, replyi.34, tmp338
.LVL69 = .
	lw	$3,.L103	 # src,
.LVL70 = .
.L75:
.LBB53 = .
.LBB54 = .
	.loc 4 40 0
	lb	$4,0($3)	 # D.9131,* src
	.loc 4 41 0
	addiu	$3,1	 # src,
.LVL71 = .
	.loc 4 40 0
	sb	$4,0($5)	 # D.9131,* dest
	addiu	$5,1	 # dest,
.LVL72 = .
	.loc 4 41 0
	bnez	$4,.L75	 #, D.9131,
.LBE54 = .
.LBE53 = .
	.loc 1 308 0
	addiu	$2,8	 # tmp360,
	.loc 1 309 0
	li	$3,255	 # tmp362,
.LVL73 = .
	.loc 1 308 0
	sw	$2,%gprel(replyi)($16)	 # tmp360, replyi
	.loc 1 309 0
	addiu	$3,1	 # tmp362,
	lw	$2,.L104	 # tmp361,
	b	.L97	 #
.LVL74 = .
.L66:
	.loc 1 312 0
	lbu	$2,3($3)	 # request, request
	lbu	$3,4($3)	 #, request
	lw	$4,.L105	 # tmp363,
	addu	$2,$4,$2	 # tmp366, tmp363, request
	sb	$3,0($2)	 # request, parameters
	b	.L64	 #
.L67:
	.loc 1 315 0
	lbu	$3,3($3)	 # request, request
	lw	$4,.L105	 # tmp371,
	addu	$5,$5,$6	 # tmp370, tmp338, replyi_lsm.143
	addu	$3,$4,$3	 # tmp374, tmp371, request
	lbu	$3,0($3)	 #, parameters
	addiu	$2,3	 # tmp376,
	sb	$3,0($5)	 # tmp375, reply
	b	.L98	 #
.L72:
	.loc 1 321 0
	lbu	$7,6($3)	 # D.9076, request
	.loc 1 320 0
	addu	$6,$5,$6	 # tmp378, tmp338, replyi_lsm.143
	sb	$4,0($6)	 # tmp352, reply
	.loc 1 321 0
	addu	$6,$5,$2	 # tmp382, tmp338, replyi.33
	sb	$7,3($6)	 # D.9076, reply
	.loc 1 322 0
	sb	$4,4($6)	 # tmp352, reply
	.loc 1 323 0
	cmpi	$7,48	 # D.9076,
	.loc 1 322 0
	addiu	$6,$2,5	 # replyi.34, replyi.33,
	sw	$6,%gprel(replyi)($16)	 # replyi.34, replyi
	.loc 1 323 0
	btnez	.L76	 #,
	.loc 1 324 0
	lbu	$3,8($3)	 # D.9078, request
	addu	$5,$5,$6	 # tmp508, tmp338, replyi.34
	bnez	$3,.L77	 #, D.9078,
	.loc 1 325 0
	li	$3,80	 # tmp390,
	sb	$3,0($5)	 # tmp390, reply
	b	.L95	 #
.L77:
	.loc 1 326 0
	cmpi	$3,1	 # D.9078,
	addiu	$2,6	 # tmp509,
	.loc 1 327 0
	li	$3,73	 # tmp395,
	.loc 1 326 0
	bteqz	.L100	 #,
	.loc 1 329 0
	li	$3,67	 # tmp399,
.L100:
	sb	$3,0($5)	 # tmp399, reply
	b	.L96	 #
.L76:
	.loc 1 332 0
	cmpi	$7,32	 # D.9076,
	bteqz	.L80	 #,
	cmpi	$7,40	 # D.9076,
	btnez	.L81	 #,
.L80:
	.loc 1 350 0
	lw	$2,.L102	 # tmp403,
	li	$3,1	 # tmp405,
	addu	$2,$2,$6	 # tmp404, tmp403, replyi.34
	neg	$3,$3	 # tmp405, tmp405
	addiu	$6,1	 # tmp406,
	sb	$3,0($2)	 # tmp405, reply
	sw	$6,%gprel(replyi)($16)	 # tmp406, replyi
	b	.L78	 #
.L81:
	.loc 1 352 0
	addu	$5,$5,$6	 # tmp408, tmp338, replyi.34
	sb	$4,0($5)	 # tmp352, reply
.L95:
	addiu	$2,6	 # tmp410,
.L96:
	sw	$2,%gprel(replyi)($16)	 # tmp410, replyi
.L78:
	.loc 1 354 0
	lw	$2,%gprel(replyi)($16)	 # replyi.33, replyi
	lw	$3,.L102	 # tmp411,
	li	$4,0	 # tmp413,
	addu	$3,$3,$2	 # tmp412, tmp411, replyi.33
	sb	$4,0($3)	 # tmp413, reply
	addiu	$2,1	 # tmp414,
.L98:
	sw	$2,%gprel(replyi)($16)	 # tmp414, replyi
	b	.L64	 #
.L68:
	.loc 1 362 0
	lbu	$4,4($3)	 # request, request
	lbu	$2,3($3)	 # request, request
	sll	$4,$4,8	 # tmp420, request,
	sll	$4,$4,8	 # tmp420, tmp420,
	sll	$2,$2,24	 # tmp429, request,
	or	$2,$4	 # tmp429, tmp420
	lbu	$4,6($3)	 # request, request
	lbu	$3,5($3)	 # request, request
	or	$2,$4	 # tmp429, request
	sll	$3,$3,8	 # tmp428, request,
	or	$2,$3	 # tmp429, tmp428
	.loc 1 364 0
	sll	$2,$2,1	 # tmp430, tmp429,
	.loc 1 366 0
	lw	$3,%gprel(avrdudeAddrBase)($16)	 # avrdudeAddrBase, avrdudeAddrBase
	b	.L99	 #
.L70:
	.loc 1 378 0
	lbu	$2,3($3)	 # request, request
	lbu	$3,4($3)	 # request, request
	sll	$2,$2,8	 # i, request,
	or	$2,$3	 # i, request
.LVL75 = .
	.loc 1 379 0
	li	$3,4	 # tmp439,
	neg	$3,$3	 # tmp439, tmp439
	addiu	$17,$2,3	 # nbytesAligned, i,
	and	$17,$3	 # nbytesAligned, tmp439
.LVL76 = .
	.loc 1 382 0
	move	$3,$2	 # i, i
	b	.L82	 #
.LVL77 = .
.L83:
	.loc 1 384 0
	lw	$4,.L106	 # tmp441,
	li	$5,1	 # tmp442,
	addu	$4,$3,$4	 # tmp440, i, tmp441
	neg	$5,$5	 # tmp442, tmp442
	sb	$5,0($4)	 # tmp442,
	.loc 1 382 0
	addiu	$3,1	 # i,
.LVL78 = .
.L82:
	sltu	$3,$17	 # i, nbytesAligned
	btnez	.L83	 #,
	.loc 1 387 0
	lbu	$3,%gprel(fGetBaseAddress.6388)($16)	 # fGetBaseAddress, fGetBaseAddress
.LVL79 = .
	beqz	$3,.L84	 #, fGetBaseAddress,
	.loc 1 394 0
	sltu	$17,256	 # nbytesAligned,
	btnez	.L85	 #,
	lw	$4,%gprel(load_address.6386)($16)	 # load_address.39, load_address
	li	$3,511	 # tmp447,
	and	$3,$4	 # tmp446, load_address.39
	bnez	$3,.L85	 #, tmp446,
.LBB55 = .
	.loc 1 396 0
	lw	$3,.L107	 # tmp448,
	lw	$3,0($3)	 # addrBaseT,
.LVL80 = .
	.loc 1 401 0
	addiu	$5,$3,1	 # tmp449, addrBaseT,
	beqz	$5,.L85	 #, tmp449,
	.loc 1 403 0
	lw	$5,%gprel(avrdudeAddrBase)($16)	 # avrdudeAddrBase, avrdudeAddrBase
	.loc 1 406 0
	sw	$3,%gprel(addrBase)($16)	 # addrBaseT, addrBase
	.loc 1 403 0
	subu	$5,$4,$5	 # load_address.45, load_address.39, avrdudeAddrBase
	.loc 1 404 0
	lw	$4,.L108	 # tmp451,
	and	$4,$3	 # avrdudeAddrBase.46, addrBaseT
	sw	$4,%gprel(avrdudeAddrBase)($16)	 # avrdudeAddrBase.46, avrdudeAddrBase
	.loc 1 405 0
	addu	$4,$5,$4	 # tmp452, load_address.45, avrdudeAddrBase.46
	sw	$4,%gprel(load_address.6386)($16)	 # tmp452, load_address
.LVL81 = .
.L85:
.LBE55 = .
	.loc 1 409 0
	li	$3,0	 # tmp453,
	sb	$3,%gprel(fGetBaseAddress.6388)($16)	 # tmp453, fGetBaseAddress
.L84:
	.loc 1 413 0
	lw	$5,%gprel(load_address.6386)($16)	 # load_address.39, load_address
	sw	$2,80($sp)	 #,
	move	$4,$5	 #, load_address.39
	.set	noreorder
	.set	nomacro
	jal	justInTimeFlashErase	 #
	addu	$5,$17,$5	 #, nbytesAligned, load_address.39
	.set	macro
	.set	reorder

.LVL82 = .
	.loc 1 417 0
	lw	$4,%gprel(load_address.6386)($16)	 #, load_address
	lw	$5,.L106	 #,
	.set	noreorder
	.set	nomacro
	jal	flashWriteUint32	 #
	srl	$6,$17,2	 #, nbytesAligned,
	.set	macro
	.set	reorder

	.loc 1 418 0
	lw	$3,%gprel(load_address.6386)($16)	 # load_address, load_address
	lw	$2,80($sp)	 #,
.LVL83 = .
.L99:
	addu	$2,$3,$2	 # tmp457, load_address, i
	sw	$2,%gprel(load_address.6386)($16)	 # tmp457, load_address
	b	.L64	 #
.L71:
	.loc 1 423 0
	lbu	$4,3($3)	 # request, request
	lw	$2,%gprel(load_address.6386)($16)	 # load_address_lsm.144, load_address
	lbu	$3,4($3)	 # request, request
	sll	$4,$4,8	 # tmp460, request,
	addu	$4,$4,$2	 # addrEndPage, tmp460, load_address_lsm.144
	or	$4,$3	 # addrEndPage, request
.LVL84 = .
	b	.L86	 #
.L91:
.LBB56 = .
	.loc 1 429 0
	lw	$7,.L109	 # tmp467,
	.loc 1 428 0
	li	$5,1024	 # tmp464,
	neg	$5,$5	 # tmp464, tmp464
	and	$5,$2	 # D.9113, load_address_lsm.144
	addiu	$3,$5,1024	 # addrEndPage, D.9113,
.LVL85 = .
	.loc 1 429 0
	addu	$5,$5,$7	 # tmp466, D.9113, tmp467
	srl	$5,$5,8	 # tmp468, tmp466,
	srl	$5,$5,2	 # tmp468, tmp468,
	lw	$7,.L110	 # tmp465,
	addu	$5,$7,$5	 # tmp470, tmp465, tmp468
	lbu	$5,0($5)	 # tmp471, pageMap
	cmpi	$5,1	 # tmp471,
	li	$5,255	 # lieMask,
	btnez	.L87	 #,
	li	$5,0	 # lieMask,
.L87:
.LVL86 = .
	sltu	$4,$3	 # addrEndPage, addrEndPage
	bteqz	.L89	 #,
	move	$3,$4	 # addrEndPage, addrEndPage
.LVL87 = .
	b	.L89	 #
.LVL88 = .
.L90:
	.loc 1 440 0
	lbu	$7,0($2)	 # tmp477,* load_address_lsm.144
	.loc 1 274 0
	lw	$17,.L102	 # tmp475,
	addu	$17,$6,$17	 # tmp474, replyi_lsm.143, tmp475
	.loc 1 440 0
	or	$7,$5	 # tmp477, lieMask
	sb	$7,0($17)	 # tmp477, reply
	.loc 1 274 0
	addiu	$6,1	 # replyi_lsm.143,
	.loc 1 440 0
	addiu	$2,1	 # load_address_lsm.144,
.LVL89 = .
.L89:
	.loc 1 438 0
	sltu	$2,$3	 # load_address_lsm.144, addrEndPage
	btnez	.L90	 #,
.LVL90 = .
.L86:
.LBE56 = .
	.loc 1 426 0
	sltu	$2,$4	 # load_address_lsm.144, addrEndPage
	btnez	.L91	 #,
	sw	$2,%gprel(load_address.6386)($16)	 # load_address_lsm.144, load_address
	.loc 1 445 0
	lw	$2,.L102	 # tmp481,
	addu	$2,$2,$6	 # tmp482, tmp481, replyi_lsm.143
	li	$3,0	 # tmp483,
	addiu	$6,1	 # tmp484,
	sb	$3,0($2)	 # tmp483, reply
	sw	$6,%gprel(replyi)($16)	 # tmp484, replyi
	b	.L64	 #
.LVL91 = .
.L69:
	.loc 1 448 0
	jal	finshFlashProcessingAfterLoad	 #
	.loc 1 449 0
	li	$2,1	 # tmp485,
	.loc 1 450 0
	li	$3,255	 # tmp487,
	.loc 1 449 0
	sb	$2,%gprel(fLoaded)($16)	 # tmp485, fLoaded
	.loc 1 450 0
	addiu	$3,1	 # tmp487,
	lw	$2,.L111	 # tmp486,
.L97:
	sw	$3,0($2)	 # tmp487,
.L64:
.LVL92 = .
	.loc 1 461 0
	lw	$17,%gprel(replyi)($16)	 # replyi.33, replyi
	.loc 1 459 0
	li	$2,27	 # tmp488,
	move	$3,$sp	 #,
	sb	$2,16($3)	 # tmp488, raw
.LVL93 = .
	.loc 1 460 0
	lbu	$3,%gprel(seq)($16)	 #, seq
	move	$4,$sp	 #,
	.loc 1 461 0
	sra	$2,$17,8	 # tmp490, replyi.33,
	.loc 1 460 0
	sb	$3,17($4)	 # seq, raw
.LVL94 = .
	.loc 1 461 0
	sb	$2,18($4)	 # tmp490, raw
.LVL95 = .
	.loc 1 462 0
	sb	$17,19($4)	 # tmp5, raw
.LVL96 = .
	.loc 1 463 0
	move	$7,$sp	 #,
	li	$4,14	 # tmp491,
	sb	$4,20($7)	 # tmp491, raw
.LVL97 = .
	.loc 1 466 0
	li	$4,27	 #,
	xor	$3,$4	 # tmp494,
	xor	$2,$3	 # tmp496, tmp494
	li	$5,14	 #,
	xor	$2,$17	 # tmp498, replyi.33
	xor	$2,$5	 # tmp500,
	.loc 1 468 0
	addiu	$4,$sp,16	 #,,
	.loc 1 466 0
	sb	$2,%gprel(csum)($16)	 # tmp500, csum
	.loc 1 468 0
	.set	noreorder
	.set	nomacro
	jal	avrbl_print	 #
	li	$5,5	 #,
	.set	macro
	.set	reorder

.LVL98 = .
	lbu	$4,%gprel(csum)($16)	 # csum_lsm.141, csum
.LBB57 = .
	.loc 1 471 0
	li	$3,0	 # i,
	b	.L92	 #
.LVL99 = .
.L93:
.LBE57 = .
	.loc 1 274 0
	lw	$2,.L102	 # tmp502,
	addu	$2,$3,$2	 # tmp501, i, tmp502
	.loc 1 472 0
	lbu	$2,0($2)	 # tmp504, reply
	.loc 1 471 0
	addiu	$3,1	 # i,
.LVL100 = .
	.loc 1 472 0
	xor	$4,$2	 # csum_lsm.141, tmp504
.LVL101 = .
.L92:
	.loc 1 471 0
	move	$2,$3	 # tmp505, i
	xor	$2,$17	 # tmp505, replyi.33
	bnez	$2,.L93	 #, tmp505,
	sb	$4,%gprel(csum)($16)	 # csum_lsm.141, csum
	.loc 1 474 0
	move	$5,$17	 #, replyi.33
	lw	$4,.L102	 #,
	.set	noreorder
	.set	nomacro
	jal	avrbl_print	 #
	sw	$2,80($sp)	 #,
	.set	macro
	.set	reorder

.LVL102 = .
	.loc 1 477 0
	move	$4,$16	 #, tmp336
	addiu	$4,%gprel(csum)	 #,
	.set	noreorder
	.set	nomacro
	jal	avrbl_print	 #
	li	$5,1	 #,
	.set	macro
	.set	reorder

	.loc 1 479 0
	lw	$2,80($sp)	 #,
	sw	$2,%gprel(replyi)($16)	 # tmp505, replyi
	.loc 1 480 0
	restore	104,$16,$17,$31
	j	$31	 #
	.align	2	 #
.L101:
	.word	request
.L102:
	.word	reply
.L103:
	.word	.LC17
.L104:
	.word	LATASET
.L105:
	.word	parameters.6387
.L106:
	.word	request+12
.L107:
	.word	request+260
.L108:
	.word	-65536
.L109:
	.word	1660944384
.L110:
	.word	pageMap
.L111:
	.word	LATACLR
# Begin mchp_output_function_epilogue
# End mchp_output_function_epilogue
	.end	avrbl_message.clone.0.clone.1
	.cfi_endproc
.LFE22:
	.size	avrbl_message.clone.0.clone.1, .-avrbl_message.clone.0.clone.1
	.align	2
	.globl	avrbl_state_machine
.LFB11 = .
	.loc 1 215 0
	.cfi_startproc
	.set	mips16
	.set	nomicromips
	.ent	avrbl_state_machine
	.type	avrbl_state_machine, @function
avrbl_state_machine:
	.frame	$sp,0,$31		# vars= 0, regs= 0/0, args= 0, gp= 0
	.mask	0x00000000,0
	.fmask	0x00000000,0
# Begin mchp_output_function_prologue
# End mchp_output_function_prologue
.LVL103 = .
	.loc 1 216 0
	move	$2,$28	 # tmp232,
	lbu	$3,%gprel(csum)($2)	 # tmp234, csum
	.loc 1 218 0
	lw	$5,%gprel(state)($2)	 # state, state
	.loc 1 215 0
	zeb	$4	 # b
	.loc 1 216 0
	xor	$3,$4	 # csum.1, b
	.loc 1 218 0
	sltu	$5,7	 # state,
	.loc 1 216 0
	sb	$3,%gprel(csum)($2)	 # csum.1, csum
	.loc 1 218 0
	bteqz	.L127	 #,
	la	$6,.L121	 # tmp238,
	sll	$5,$5,1	 # tmp239, state,
	addu	$5,$6,$5	 # tmp240, tmp238, tmp239
	lh	$5,0($5)	 # tmp242,
	addu	$6,$5,$6	 # tmp243, tmp242, tmp238
	j	$6	 # tmp243
	.align	1
	.align	2
.L121:
	.half	.L114-.L121
	.half	.L115-.L121
	.half	.L116-.L121
	.half	.L117-.L121
	.half	.L118-.L121
	.half	.L119-.L121
	.half	.L120-.L121
.L114:
	.loc 1 220 0
	cmpi	$4,27	 # b,
	btnez	.L122	 #,
	.loc 1 221 0
	li	$3,1	 # tmp246,
	sw	$3,%gprel(state)($2)	 # tmp246, state
.L122:
	.loc 1 223 0
	sb	$4,%gprel(csum)($2)	 # b, csum
	.loc 1 224 0
	j	$31
.L115:
	.loc 1 226 0
	sb	$4,%gprel(seq)($2)	 # b, seq
	.loc 1 227 0
	li	$3,2	 # tmp247,
	b	.L125	 #
.L116:
	.loc 1 230 0
	sll	$4,$4,8	 # tmp248, b,
.LVL104 = .
	sw	$4,%gprel(size)($2)	 # tmp248, size
	.loc 1 231 0
	li	$3,3	 # tmp249,
	b	.L125	 #
.LVL105 = .
.L117:
	.loc 1 234 0
	lw	$3,%gprel(size)($2)	 # tmp251, size
	or	$3,$4	 # tmp251, b
	sw	$3,%gprel(size)($2)	 # tmp251, size
	.loc 1 235 0
	li	$3,4	 # tmp252,
	b	.L125	 #
.L118:
	.loc 1 238 0
	li	$3,14	 #,
	xor	$4,$3	 # tmp253,
.LVL106 = .
	.loc 1 242 0
	li	$3,0	 # tmp256,
	.loc 1 238 0
	bnez	$4,.L125	 #, tmp253,
	.loc 1 239 0
	sw	$4,%gprel(requesti)($2)	 # tmp253, requesti
	.loc 1 240 0
	li	$3,5	 # tmp255,
	b	.L125	 #
.LVL107 = .
.L119:
	.loc 1 246 0
	lw	$3,%gprel(requesti)($2)	 # requesti.6, requesti
	lw	$5,.L126	 # tmp257,
	addu	$5,$5,$3	 # tmp258, tmp257, requesti.6
	sb	$4,2($5)	 # b, request
	.loc 1 247 0
	lw	$4,%gprel(size)($2)	 # size, size
.LVL108 = .
	.loc 1 246 0
	addiu	$3,1	 # requesti.7,
	sw	$3,%gprel(requesti)($2)	 # requesti.7, requesti
	.loc 1 247 0
	xor	$3,$4	 # tmp260, size
	bnez	$3,.L127	 #, tmp260,
	.loc 1 248 0
	li	$3,6	 # tmp261,
.L125:
	sw	$3,%gprel(state)($2)	 # tmp261, state
	j	$31
.LVL109 = .
.L120:
	.loc 1 252 0
	bnez	$3,.L124	 #, csum.1,
	.loc 1 255 0
	li	$3,1	 # tmp262,
	sb	$3,%gprel(ready)($2)	 # tmp262, ready
.L124:
	.loc 1 257 0
	li	$3,0	 # tmp263,
	sw	$3,%gprel(state)($2)	 # tmp263, state
.LVL110 = .
.L127:
	j	$31
	.align	2	 #
.L126:
	.word	request
# Begin mchp_output_function_epilogue
# End mchp_output_function_epilogue
	.end	avrbl_state_machine
	.cfi_endproc
.LFE11:
	.size	avrbl_state_machine, .-avrbl_state_machine
	.align	2
	.globl	main
.LFB10 = .
	.loc 1 90 0
	.cfi_startproc
	.set	mips16
	.set	nomicromips
	.ent	main
	.type	main, @function
main:
	.frame	$sp,24,$31		# vars= 0, regs= 2/0, args= 16, gp= 0
	.mask	0x80010000,-4
	.fmask	0x00000000,0
# Begin mchp_output_function_prologue
# End mchp_output_function_prologue
	.loc 1 95 0
	lw	$2,.L145	 # tmp256,
	lw	$3,0($2)	 # RCON.8, RCON
	.loc 1 90 0
	save	24,$16,$31
.LCFI6:
	.cfi_def_cfa_offset 24
	.loc 1 95 0
	move	$16,$28	 # tmp257,
	.cfi_offset 16, -8
	.cfi_offset 31, -4
	move	$2,$16	 # tmp258, tmp257
	addiu	$2,%gprel(ramHeader)	 # tmp258,
	sw	$3,4($2)	 # RCON.8, ramHeader.rcon
.LBB58 = .
.LBB59 = .
	.loc 3 1369 0
	li	$2,0	 # tmp260,
	lw	$3,.L146	 # tmp259,
	sw	$2,0($3)	 # tmp260, ANSELA
	.loc 3 1373 0
	lw	$3,.L147	 # tmp261,
	sw	$2,0($3)	 # tmp260, ANSELB
	.loc 3 1377 0
	lw	$3,.L148	 # tmp263,
	sw	$2,0($3)	 # tmp260, ANSELC
	.loc 3 1388 0
	lw	$4,.L149	 # tmp265,
	.loc 3 1389 0
	addiu	$2,256	 # tmp268,
	.loc 3 1388 0
	li	$3,128	 # tmp266,
	sw	$3,0($4)	 # tmp266, TRISACLR
.LBE59 = .
.LBE58 = .
	.loc 1 105 0
	lw	$5,.L150	 # tmp276,
.LBB61 = .
.LBB60 = .
	.loc 3 1389 0
	sw	$2,0($4)	 # tmp268, TRISACLR
	.loc 3 1394 0
	lw	$4,.L151	 # tmp269,
	sw	$2,0($4)	 # tmp268, LATACLR
.LBE60 = .
.LBE61 = .
	.loc 1 110 0
	lw	$2,.L152	 # tmp271,
	lw	$2,0($2)	 # tmp272,
	lw	$5,4096($5)	 # tmp280,
	li	$4,16	 # tmp273,
	and	$2,$4	 # tmp272, tmp273
	sltu	$2,1	 # tmp272
	not	$5,$5	 # tmp279, tmp280
	move	$2,$24	 # D.8638,
	sltu	$5,1	 # tmp279
	move	$5,$24	 #, tmp283
	cmpi	$5,1	 #,
	move	$5,$24	 #, tmp284
	and	$2,$5	 # D.8638,
	.loc 1 114 0
	lw	$5,.L153	 # tmp287,
	lw	$5,0($5)	 # tmp288,
	and	$5,$4	 # tmp288, tmp273
	li	$4,1	 # iftmp.13,
	beqz	$5,.L130	 #, tmp288,
	lw	$5,.L154	 # tmp290,
	lw	$6,0($5)	 # tmp291,
	and	$6,$4	 # tmp291, iftmp.13
	bnez	$6,.L130	 #, tmp291,
	lw	$6,0($5)	 # tmp294,
	and	$6,$3	 # tmp294, tmp266
	bnez	$6,.L130	 #, tmp294,
	lw	$4,0($5)	 # tmp297,
	li	$3,64	 # tmp298,
	and	$4,$3	 # tmp297, tmp298
	sltu	$4,1	 # tmp297
	move	$4,$24	 # iftmp.13,
.L130:
	and	$2,$4	 # fLoadProgramFromFlash.14, iftmp.13
	.loc 1 121 0
	lw	$3,.L151	 # tmp302,
	li	$4,16	 # tmp303,
	sw	$4,0($3)	 # tmp303, LATACLR
	.loc 1 122 0
	li	$4,0	 # tmp305,
	lw	$3,.L145	 # tmp304,
	.loc 1 114 0
	sb	$2,%gprel(fLoadProgramFromFlash)($16)	 # fLoadProgramFromFlash.14, fLoadProgramFromFlash
	.loc 1 122 0
	sw	$4,0($3)	 # tmp305, RCON
	.loc 1 126 0
	beqz	$2,.L131	 #, fLoadProgramFromFlash.14,
	.loc 1 129 0
	jal	ExecuteApp	 #
.L131:
	.loc 1 132 0
	.set	noreorder
	jal _ISA32M164
	nop
	.align 2
	.set	nomips16
_ISA32M164: 
	.set	reorder
	mfc0	$2, $9, 0
	.set	noreorder
	jal _ISA16M165
	nop
	.align 2
	.set	mips16
_ISA16M165:	nop
	.set	reorder
.LBB62 = .
.LBB63 = .
	.loc 3 1489 0
	lw	$3,.L155	 # tmp306,
.LBE63 = .
.LBE62 = .
	.loc 1 132 0
	sw	$2,%gprel(tLoopStart)($16)	 # tLoopStart.15, tLoopStart
	.loc 1 133 0
	sw	$2,%gprel(tLastBlink)($16)	 # tLoopStart.15, tLastBlink
.LBB66 = .
.LBB65 = .
	.loc 3 1489 0
	li	$2,1	 # tmp307,
	sw	$2,0($3)	 # tmp307, U1RXR
	.loc 3 1490 0
	lw	$3,.L156	 # tmp308,
	sw	$2,0($3)	 # tmp307, RPB7R
	.loc 3 1501 0
	li	$3,32768	 # tmp311,
	lw	$2,.L157	 # tmp310,
	sw	$3,0($2)	 # tmp311, U1MODE
	.loc 3 1502 0
	addiu	$3,-27648	 # tmp313,
	lw	$2,.L158	 # tmp312,
	sw	$3,0($2)	 # tmp313, U1STA
	.loc 3 1503 0
	li	$3,20	 # tmp315,
	lw	$2,.L159	 # tmp314,
	sw	$3,0($2)	 # tmp315, U1BRG
	b	.L132	 #
.L133:
.LVL111 = .
.LBB64 = .
	.loc 3 1509 0
	lw	$2,.L160	 # tmp316,
	lw	$2,0($2)	 # U1RXREG.24, U1RXREG
.LVL112 = .
.L132:
.LBE64 = .
	.loc 3 1506 0
	lw	$2,.L161	 # tmp317,
	lw	$2,0($2)	 # tmp318,
	li	$3,1	 # tmp319,
	and	$2,$3	 # tmp318, tmp319
	bnez	$2,.L133	 #, tmp318,
.L144:
.LBE65 = .
.LBE66 = .
	.loc 1 142 0
	.set	noreorder
	jal _ISA32M166
	nop
	.align 2
	.set	nomips16
_ISA32M166: 
	.set	reorder
	mfc0	$2, $9, 0
	.set	noreorder
	jal _ISA16M167
	nop
	.align 2
	.set	mips16
_ISA16M167:	nop
	.set	reorder
	.loc 1 148 0
	lw	$3,.L162	 # tmp323,
	lbu	$5,%gprel(active)($16)	 #, active
	lw	$4,%gprel(tLastBlink)($16)	 # tLastBlink, tLastBlink
	.loc 1 142 0
	sw	$2,%gprel(tLoopTime)($16)	 # tLoopTime.17, tLoopTime
	.loc 1 148 0
	srl	$3,$5	 # tmp323, active
	subu	$4,$2,$4	 # tmp321, tLoopTime.17, tLastBlink
	sltu	$4,$3	 # tmp321, tmp323
	btnez	.L134	 #,
	.loc 1 151 0
	li	$4,128	 # tmp327,
	lw	$3,.L163	 # tmp326,
	sw	$4,0($3)	 # tmp327, LATAINV
	.loc 1 154 0
	sw	$2,%gprel(tLastBlink)($16)	 # tLoopTime.17, tLastBlink
.L134:
	.loc 1 160 0
	lbu	$2,%gprel(fLoaded)($16)	 #, fLoaded
	zeb	$2	 # fLoaded.21
	bnez	$2,.L135	 #, fLoaded.21,
	lbu	$2,%gprel(fLoadProgramFromFlash)($16)	 # fLoadProgramFromFlash, fLoadProgramFromFlash
	beqz	$2,.L136	 #, fLoadProgramFromFlash,
.L135:
	.loc 1 179 0
	jal	ExecuteApp	 #
.L136:
.LBB67 = .
.LBB68 = .
	.loc 2 54 0
	lw	$2,.L161	 # tmp330,
	lw	$2,0($2)	 # tmp331,
	li	$3,1	 # tmp332,
	and	$2,$3	 # tmp331, tmp332
	beqz	$2,.L137	 #, tmp331,
	.loc 2 57 0
	lw	$2,.L160	 # tmp333,
	lw	$4,0($2)	 # U1RXREG.32, U1RXREG
	.set	noreorder
	.set	nomacro
	jal	avrbl_state_machine	 #
	zeb	$4	 #
	.set	macro
	.set	reorder

.L137:
.LBE68 = .
.LBE67 = .
	.loc 1 189 0
	lbu	$2,%gprel(ready)($16)	 # ready, ready
	beqz	$2,.L144	 #, ready,
	.loc 1 191 0
	jal	avrbl_message.clone.0.clone.1	 #
	.loc 1 192 0
	li	$2,0	 # tmp336,
	sb	$2,%gprel(ready)($16)	 # tmp336, ready
	b	.L144	 #
	.align	2	 #
.L145:
	.word	RCON
.L146:
	.word	ANSELA
.L147:
	.word	ANSELB
.L148:
	.word	ANSELC
.L149:
	.word	TRISACLR
.L150:
	.word	-1660944384
.L151:
	.word	LATACLR
.L152:
	.word	PORTA
.L153:
	.word	LATA
.L154:
	.word	RCON
.L155:
	.word	U1RXR
.L156:
	.word	RPB7R
.L157:
	.word	U1MODE
.L158:
	.word	U1STA
.L159:
	.word	U1BRG
.L160:
	.word	U1RXREG
.L161:
	.word	U1STA
.L162:
	.word	2500000
.L163:
	.word	LATAINV
# Begin mchp_output_function_epilogue
# End mchp_output_function_epilogue
	.end	main
	.cfi_endproc
.LFE10:
	.size	main, .-main
	.section	.sbss,bss,near
	.type	csum, @object
	.size	csum, 1
csum:
	.space	1
	.align	2
	.type	state, @object
	.size	state, 4
state:
	.space	4
	.type	seq, @object
	.size	seq, 1
seq:
	.space	1
	.align	2
	.type	size, @object
	.size	size, 4
size:
	.space	4
	.align	2
	.type	requesti, @object
	.size	requesti, 4
requesti:
	.space	4
	.section	.bss,bss
	.align	2
	.type	request, @object
	.size	request, 1024
request:
	.space	1024
	.section	.sbss,bss,near
	.type	ready, @object
	.size	ready, 1
ready:
	.space	1
	.align	2
	.type	ramHeader, @object
	.size	ramHeader, 8
ramHeader:
	.space	8
	.type	fLoadProgramFromFlash, @object
	.size	fLoadProgramFromFlash, 1
fLoadProgramFromFlash:
	.space	1
	.align	2
	.type	tLoopStart, @object
	.size	tLoopStart, 4
tLoopStart:
	.space	4
	.align	2
	.type	tLastBlink, @object
	.size	tLastBlink, 4
tLastBlink:
	.space	4
	.align	2
	.type	tLoopTime, @object
	.size	tLoopTime, 4
tLoopTime:
	.space	4
	.type	active, @object
	.size	active, 1
active:
	.space	1
	.type	fLoaded, @object
	.size	fLoaded, 1
fLoaded:
	.space	1
	.section	.sdata,data
	.align	2
	.type	addrBase, @object
	.size	addrBase, 4
addrBase:
	.word	-1660944384
	.align	2
	.type	UserApp, @object
	.size	UserApp, 4
UserApp:
	.word	-1660940288
	.section	.sbss,bss,near
	.align	2
	.type	replyi, @object
	.size	replyi, 4
replyi:
	.space	4
	.section	.bss,bss
	.align	2
	.type	reply, @object
	.size	reply, 1024
reply:
	.space	1024
	.section	.sbss,bss,near
	.type	erased, @object
	.size	erased, 1
erased:
	.space	1
	.section	.sdata,data
	.align	2
	.type	avrdudeAddrBase, @object
	.size	avrdudeAddrBase, 4
avrdudeAddrBase:
	.word	-1660944384
	.section	.bss,bss
	.align	2
	.type	pageMap, @object
	.size	pageMap, 32
pageMap:
	.space	32
	.section	.sdata,data
	.type	fGetBaseAddress.6388, @object
	.size	fGetBaseAddress.6388, 1
fGetBaseAddress.6388:
	.byte	1
	.section	.bss,bss
	.align	2
	.type	parameters.6387, @object
	.size	parameters.6387, 256
parameters.6387:
	.space	256
	.section	.sbss,bss,near
	.align	2
	.type	load_address.6386, @object
	.size	load_address.6386, 4
load_address.6386:
	.space	4
	.section	.sdata,data
	.align	2
	.type	bootloaderVer, @object
	.size	bootloaderVer, 4
bootloaderVer:
	.word	16777479
	.section	.sbss,bss,near
	.align	2
	.type	prodAndVend, @object
	.size	prodAndVend, 4
prodAndVend:
	.space	4
	.section	.sdata,data
	.align	2
	.type	bootloaderCapabilities, @object
	.size	bootloaderCapabilities, 4
bootloaderCapabilities:
	.word	319751729
	.align	2
	.type	cbSkipRam, @object
	.size	cbSkipRam, 4
cbSkipRam:
	.word	_RAM_SKIP_SIZE
	.section	.text,code
.Letext0:
	.section	.text,code
	.ident	"GCC: (Microchip Technology) 4.5.1 MPLAB C Compiler for PIC32 MCUs v2.02-20111116"
# Begin MCHP vector dispatch table
# End MCHP vector dispatch table
# MCHP configuration words
# Configuration word @ 0xbfc00bfc
	.section	.config_BFC00BFC, code
	.type	__config_BFC00BFC, @object
	.size	__config_BFC00BFC, 4
__config_BFC00BFC:
	.word	2147483643
# Configuration word @ 0xbfc00bf8
	.section	.config_BFC00BF8, code
	.type	__config_BFC00BF8, @object
	.size	__config_BFC00BF8, 4
__config_BFC00BF8:
	.word	4285189595
# Configuration word @ 0xbfc00bf4
	.section	.config_BFC00BF4, code
	.type	__config_BFC00BF4, @object
	.size	__config_BFC00BF4, 4
__config_BFC00BF4:
	.word	4294574041
# Configuration word @ 0xbfc00bf0
	.section	.config_BFC00BF0, code
	.type	__config_BFC00BF0, @object
	.size	__config_BFC00BF0, 4
__config_BFC00BF0:
	.word	3489660927
